target datalayout = "e-m:e-p270:32:32-p271:32:32-p272:64:64-i64:64-i128:128-f80:128-n8:16:32:64-S128"
target triple = "x86_64-pc-linux-gnu"

@.str.8 = private unnamed_addr constant [2 x i8] c"~\00", align 1
@.str.12 = private unnamed_addr constant [5 x i8] c"%s%c\00", align 1
@.str.13 = private unnamed_addr constant [1 x i8] zeroinitializer, align 1
@.str.14 = private unnamed_addr constant [6 x i8] c"%si%d\00", align 1

; Function Attrs: inlinehint nounwind uwtable
define internal i32 @Abc_LitIsCompl(i32 noundef %0) #2 {
  %2 = alloca i32, align 4
  store i32 %0, ptr %2, align 4, !tbaa !10
  %3 = load i32, ptr %2, align 4, !tbaa !10
  %4 = and i32 %3, 1
  ret i32 %4
}

; Function Attrs: inlinehint nounwind uwtable
define internal i32 @Abc_Lit2Var(i32 noundef %0) #2 {
  %2 = alloca i32, align 4
  store i32 %0, ptr %2, align 4, !tbaa !10
  %3 = load i32, ptr %2, align 4, !tbaa !10
  %4 = ashr i32 %3, 1
  ret i32 %4
}

; Function Attrs: nounwind uwtable
define void @Gia_ManResubPrintLit(ptr noundef %0, i32 noundef %1, i32 noundef %2) #0 {
  %4 = alloca ptr, align 8
  %5 = alloca i32, align 4
  %6 = alloca i32, align 4
  store ptr %0, ptr %4, align 8, !tbaa !12
  store i32 %1, ptr %5, align 4, !tbaa !10
  store i32 %2, ptr %6, align 4, !tbaa !10
  %7 = load i32, ptr %6, align 4, !tbaa !10
  %8 = call i32 @Abc_Lit2Var(i32 noundef %7)
  %9 = load i32, ptr %5, align 4, !tbaa !10
  %10 = icmp slt i32 %8, %9
  br i1 %10, label %11, label %34

11:                                               ; preds = %3
  %12 = load i32, ptr %5, align 4, !tbaa !10
  %13 = icmp slt i32 %12, 26
  br i1 %13, label %14, label %24

14:                                               ; preds = %11
  %15 = load i32, ptr %6, align 4, !tbaa !10
  %16 = call i32 @Abc_LitIsCompl(i32 noundef %15)
  %17 = icmp ne i32 %16, 0
  %18 = select i1 %17, ptr @.str.8, ptr @.str.13
  %19 = load i32, ptr %6, align 4, !tbaa !10
  %20 = call i32 @Abc_Lit2Var(i32 noundef %19)
  %21 = add nsw i32 97, %20
  %22 = sub nsw i32 %21, 2
  %23 = call i32 (ptr, ...) @printf(ptr noundef @.str.12, ptr noundef %18, i32 noundef %22)
  br label %33

24:                                               ; preds = %11
  %25 = load i32, ptr %6, align 4, !tbaa !10
  %26 = call i32 @Abc_LitIsCompl(i32 noundef %25)
  %27 = icmp ne i32 %26, 0
  %28 = select i1 %27, ptr @.str.8, ptr @.str.13
  %29 = load i32, ptr %6, align 4, !tbaa !10
  %30 = call i32 @Abc_Lit2Var(i32 noundef %29)
  %31 = sub nsw i32 %30, 2
  %32 = call i32 (ptr, ...) @printf(ptr noundef @.str.14, ptr noundef %28, i32 noundef %31)
  br label %33

33:                                               ; preds = %24, %14
  br label %43

34:                                               ; preds = %3
  %35 = load ptr, ptr %4, align 8, !tbaa !12
  %36 = load i32, ptr %5, align 4, !tbaa !10
  %37 = load i32, ptr %6, align 4, !tbaa !10
  %38 = call i32 @Abc_Lit2Var(i32 noundef %37)
  %39 = load i32, ptr %5, align 4, !tbaa !10
  %40 = sub nsw i32 %38, %39
  %41 = load i32, ptr %6, align 4, !tbaa !10
  %42 = call i32 @Abc_LitIsCompl(i32 noundef %41)
  call void @Gia_ManResubPrintNode(ptr noundef %35, i32 noundef %36, i32 noundef %40, i32 noundef %42)
  br label %43

43:                                               ; preds = %34, %33
  ret void
}