; Function Attrs: nofree nounwind uwtable
define void @Gia_ManResubPrintLit(ptr noundef readonly captures(none) %0, i32 noundef %1, i32 noundef %2) local_unnamed_addr #3 {
  %4 = ashr i32 %2, 1
  %5 = icmp slt i32 %4, %1
  %6 = and i32 %2, 1
  br i1 %5, label %7, label %16

7:                                                ; preds = %3
  %8 = icmp slt i32 %1, 26
  %.not11 = icmp eq i32 %6, 0
  %9 = select i1 %.not11, ptr @.str.13, ptr @.str.8
  br i1 %8, label %10, label %13

10:                                               ; preds = %7
  %11 = add nsw i32 %4, 95
  %12 = tail call i32 (ptr, ...) @printf(ptr noundef nonnull dereferenceable(1) @.str.12, ptr noundef nonnull %9, i32 noundef %11)
  br label %18

13:                                               ; preds = %7
  %14 = add nsw i32 %4, -2
  %15 = tail call i32 (ptr, ...) @printf(ptr noundef nonnull dereferenceable(1) @.str.14, ptr noundef nonnull %9, i32 noundef %14)
  br label %18

16:                                               ; preds = %3
  %17 = sub nsw i32 %4, %1
  tail call void @Gia_ManResubPrintNode(ptr noundef %0, i32 noundef %1, i32 noundef %17, i32 noundef %6)
  br label %18

18:                                               ; preds = %10, %13, %16
  ret void
}